target datalayout = "e-m:e-p270:32:32-p271:32:32-p272:64:64-i64:64-i128:128-f80:128-n8:16:32:64-S128"
target triple = "x86_64-pc-linux-gnu"

@.str.1 = private unnamed_addr constant [34 x i8] c"%lu is too large for a byte value\00", align 1

; Function Attrs: null_pointer_is_valid sspstrong uwtable
define hidden ptr @byte_array_from_charconst(i64 noundef %0, ptr noundef %1) #0 {
  %3 = alloca ptr, align 8
  %4 = alloca i64, align 8
  %5 = alloca ptr, align 8
  %6 = alloca ptr, align 8
  %7 = alloca i8, align 1
  store i64 %0, ptr %4, align 8
  store ptr %1, ptr %5, align 8
  %8 = load i64, ptr %4, align 8
  %9 = icmp ugt i64 %8, 255
  br i1 %9, label %10, label %18

10:                                               ; preds = %2
  %11 = load ptr, ptr %5, align 8
  %12 = icmp ne ptr %11, null
  br i1 %12, label %13, label %17

13:                                               ; preds = %10
  %14 = load i64, ptr %4, align 8
  %15 = call noalias ptr (ptr, ptr, ...) @wmem_strdup_printf(ptr noundef null, ptr noundef @.str.1, i64 noundef %14)
  %16 = load ptr, ptr %5, align 8
  store ptr %15, ptr %16, align 8
  br label %17

17:                                               ; preds = %13, %10
  store ptr null, ptr %3, align 8
  br label %25

18:                                               ; preds = %2
  call void @llvm.lifetime.start.p0(i64 8, ptr %6) #9
  %19 = call ptr @g_byte_array_new()
  store ptr %19, ptr %6, align 8
  call void @llvm.lifetime.start.p0(i64 1, ptr %7) #9
  %20 = load i64, ptr %4, align 8
  %21 = trunc i64 %20 to i8
  store i8 %21, ptr %7, align 1
  %22 = load ptr, ptr %6, align 8
  %23 = call ptr @g_byte_array_append(ptr noundef %22, ptr noundef %7, i32 noundef 1)
  %24 = load ptr, ptr %6, align 8
  store ptr %24, ptr %3, align 8
  call void @llvm.lifetime.end.p0(i64 1, ptr %7) #9
  call void @llvm.lifetime.end.p0(i64 8, ptr %6) #9
  br label %25

25:                                               ; preds = %18, %17
  %26 = load ptr, ptr %3, align 8
  ret ptr %26
}