; Function Attrs: null_pointer_is_valid sspstrong uwtable
define hidden noundef ptr @byte_array_from_charconst(i64 noundef %0, ptr noundef writeonly captures(address_is_null) %1) local_unnamed_addr #0 {
  %3 = alloca i8, align 1
  %4 = icmp ugt i64 %0, 255
  br i1 %4, label %5, label %8

5:                                                ; preds = %2
  %.not = icmp eq ptr %1, null
  br i1 %.not, label %12, label %6

6:                                                ; preds = %5
  %7 = tail call noalias ptr (ptr, ptr, ...) @wmem_strdup_printf(ptr noundef null, ptr noundef nonnull @.str.1, i64 noundef %0)
  store ptr %7, ptr %1, align 8
  br label %12

8:                                                ; preds = %2
  %9 = tail call ptr @g_byte_array_new()
  call void @llvm.lifetime.start.p0(i64 1, ptr nonnull %3) #12
  %10 = trunc nuw i64 %0 to i8
  store i8 %10, ptr %3, align 1
  %11 = call ptr @g_byte_array_append(ptr noundef %9, ptr noundef nonnull %3, i32 noundef 1)
  call void @llvm.lifetime.end.p0(i64 1, ptr nonnull %3) #12
  br label %12

12:                                               ; preds = %5, %6, %8
  %.0 = phi ptr [ %9, %8 ], [ null, %6 ], [ null, %5 ]
  ret ptr %.0
}